Certificate:
    Data:
        Version: 3 (0x2)
        Serial Number: 0 (0x0)
    Signature Algorithm: sha256WithRSAEncryption
        Issuer: C=JP, ST=Tokyo, L=Shinagawa, O=Sony, OU=Team1, CN=LocalhostInterCA
        Validity
            Not Before: Aug 25 09:53:19 2016 GMT
            Not After : Aug 23 09:53:19 2026 GMT
        Subject: C=JP, ST=Tokyo, O=Sony, OU=Group1, CN=127.0.0.1
        Subject Public Key Info:
            Public Key Algorithm: rsaEncryption
                Public-Key: (1024 bit)
                Modulus:
                    00:ad:5a:e7:d7:f8:87:ab:1c:06:68:11:c6:6c:47:
                    98:74:d9:9c:44:08:1f:40:fe:1e:0f:21:aa:59:b5:
                    78:c8:2e:ea:bc:d6:34:49:d9:8b:8b:db:e0:d0:02:
                    a7:b1:82:f2:79:58:13:84:44:01:ee:f5:2c:a8:24:
                    3d:e9:cb:10:83:2f:e5:2f:f7:c0:10:0d:e5:50:57:
                    76:59:89:e5:25:f5:6d:e2:cd:56:f9:d4:2e:bc:de:
                    2f:5d:a9:9c:c4:fd:7c:3e:5c:17:7d:9d:6b:f8:f7:
                    c1:0b:74:b8:73:14:de:70:97:da:f4:21:12:62:d3:
                    d6:d1:3f:11:4f:ab:7f:77:55
                Exponent: 65537 (0x10001)
        X509v3 extensions:
            X509v3 Basic Constraints: 
                CA:FALSE
            X509v3 Key Usage: 
                Digital Signature, Non Repudiation, Key Encipherment
            X509v3 Subject Alternative Name: 
                IP Address:43.8.219.31
            X509v3 CRL Distribution Points: 

                Full Name:
                  URI:http://43.8.219.31:49580/test_ca/inter.crl

    Signature Algorithm: sha256WithRSAEncryption
         60:f0:9a:f5:4e:6b:04:53:30:14:f3:2b:6b:99:38:0e:77:c8:
         c3:7e:a4:a3:b9:bc:b9:d2:4c:88:52:38:ab:2f:c5:7b:29:de:
         9e:c9:4b:a2:de:50:d5:2e:5c:83:a5:f5:a5:af:4c:66:eb:b9:
         cb:5d:57:1c:b8:db:04:b0:b6:11:80:5a:10:d5:b6:64:65:5b:
         09:65:15:01:76:87:00:44:dc:ee:b8:7c:fb:ca:47:3d:2c:73:
         2f:ea:e2:40:df:58:47:2a:18:fb:aa:4c:3f:a7:bd:1a:a5:27:
         d6:54:11:0e:d5:fb:0e:23:8a:68:ff:44:9e:36:3b:f1:00:e2:
         9f:32
-----BEGIN CERTIFICATE-----
MIICmjCCAgOgAwIBAgIBADANBgkqhkiG9w0BAQsFADBrMQswCQYDVQQGEwJKUDEO
MAwGA1UECAwFVG9reW8xEjAQBgNVBAcMCVNoaW5hZ2F3YTENMAsGA1UECgwEU29u
eTEOMAwGA1UECwwFVGVhbTExGTAXBgNVBAMMEExvY2FsaG9zdEludGVyQ0EwHhcN
MTYwODI1MDk1MzE5WhcNMjYwODIzMDk1MzE5WjBRMQswCQYDVQQGEwJKUDEOMAwG
A1UECAwFVG9reW8xDTALBgNVBAoMBFNvbnkxDzANBgNVBAsMBkdyb3VwMTESMBAG
A1UEAwwJMTI3LjAuMC4xMIGfMA0GCSqGSIb3DQEBAQUAA4GNADCBiQKBgQCtWufX
+IerHAZoEcZsR5h02ZxECB9A/h4PIapZtXjILuq81jRJ2YuL2+DQAqexgvJ5WBOE
RAHu9SyoJD3pyxCDL+Uv98AQDeVQV3ZZieUl9W3izVb51C683i9dqZzE/Xw+XBd9
nWv498ELdLhzFN5wl9r0IRJi09bRPxFPq393VQIDAQABo2gwZjAJBgNVHRMEAjAA
MAsGA1UdDwQEAwIF4DAPBgNVHREECDAGhwQrCNsfMDsGA1UdHwQ0MDIwMKAuoCyG
Kmh0dHA6Ly80My44LjIxOS4zMTo0OTU4MC90ZXN0X2NhL2ludGVyLmNybDANBgkq
hkiG9w0BAQsFAAOBgQBg8Jr1TmsEUzAU8ytrmTgOd8jDfqSjuby50kyIUjirL8V7
Kd6eyUui3lDVLlyDpfWlr0xm67nLXVccuNsEsLYRgFoQ1bZkZVsJZRUBdocARNzu
uHz7ykc9LHMv6uJA31hHKhj7qkw/p70apSfWVBEO1fsOI4po/0SeNjvxAOKfMg==
-----END CERTIFICATE-----
-----BEGIN RSA PRIVATE KEY-----
MIICXQIBAAKBgQCtWufX+IerHAZoEcZsR5h02ZxECB9A/h4PIapZtXjILuq81jRJ
2YuL2+DQAqexgvJ5WBOERAHu9SyoJD3pyxCDL+Uv98AQDeVQV3ZZieUl9W3izVb5
1C683i9dqZzE/Xw+XBd9nWv498ELdLhzFN5wl9r0IRJi09bRPxFPq393VQIDAQAB
AoGBAKxF8rCFow1ARH2XbICehbtZphlVmPmVj3mqEwgjd2w4c75FgKEDN9I9KCSO
/udBIoXEKWD/1IwLyd0uZvi3fCe/5VNcl5rmbCO/mtdPXrr/O2wSEWc6s4D4RD0P
IfRbVuRHdUYAhlDalfRA/w7dmM06VcdRGtKHOv+r3MpuvvMBAkEA1k/PZThLSfYG
jon9Z4gAo5Lp1F7OyTqNL98mao3KaNOkfWi+FePZEXTvIQ0zZ/pVraq5MdG3Btlq
3Tu/I9uVKQJBAM8TjmmrroJv3IcMyOV+F3XN2MAgGWK1T829F3D/joMhas1RhX07
ZDpLK/2u5aC5C3ZsubJliu6NXOvlIw2gCk0CQQCruAdV82VgPeHDFI4XBsJ8TptN
rynB00iNsx/1AOfOVsbWNbcZkxe7BRcWRJ2MEunT3ZfGc2NT+aHG4rik4q0BAkBV
9mJaT6DkGRfNIGuNiWinyMpAB5NCPM5iNCs1B4HbwdWaYksuD6et42Lhruc4b1jo
0n3MJwcjvJ9kdfy1PUjJAkAHb0xPJSAyM6Aae/seVQJQ/ps9ydyaCa78ETxoiS/h
BBsFB5zc6XzTUb7vHaJtcPNtQjvo8PEuYsvID52sWmhZ
-----END RSA PRIVATE KEY-----
